target datalayout = "e-m:e-p270:32:32-p271:32:32-p272:64:64-i64:64-i128:128-f80:128-n8:16:32:64-S128"
target triple = "x86_64-pc-linux-gnu"

%struct.z_stream_s = type { ptr, i32, i64, ptr, i32, i64, ptr, ptr, ptr, ptr, ptr, i32, i64, i64 }
%struct.internal_state = type { ptr, i32, ptr, i64, ptr, i64, i32, ptr, i64, i8, i32, i32, i32, i32, ptr, i64, ptr, ptr, i32, i32, i32, i32, i32, i64, i32, i32, i32, i32, i32, i32, i32, i32, i32, i32, i32, i32, i32, [573 x %struct.ct_data_s], [61 x %struct.ct_data_s], [39 x %struct.ct_data_s], %struct.tree_desc_s, %struct.tree_desc_s, %struct.tree_desc_s, [16 x i16], [573 x i32], i32, i32, [573 x i8], ptr, i32, i32, i32, i64, i64, i32, i32, i16, i32, i64 }
%struct.ct_data_s = type { %union.anon, %union.anon.0 }
%union.anon = type { i16 }
%union.anon.0 = type { i16 }
%struct.tree_desc_s = type { ptr, i32, ptr }

; Function Attrs: nounwind uwtable
define internal void @flush_pending(ptr noundef %0) #0 {
  %2 = alloca ptr, align 8
  %3 = alloca i32, align 4
  %4 = alloca ptr, align 8
  %5 = alloca i32, align 4
  store ptr %0, ptr %2, align 8, !tbaa !4
  call void @llvm.lifetime.start.p0(i64 4, ptr %3) #5
  call void @llvm.lifetime.start.p0(i64 8, ptr %4) #5
  %6 = load ptr, ptr %2, align 8, !tbaa !4
  %7 = getelementptr inbounds nuw %struct.z_stream_s, ptr %6, i32 0, i32 7
  %8 = load ptr, ptr %7, align 8, !tbaa !22
  store ptr %8, ptr %4, align 8, !tbaa !21
  %9 = load ptr, ptr %4, align 8, !tbaa !21
  call void @cm_zlib__tr_flush_bits(ptr noundef %9)
  %10 = load ptr, ptr %4, align 8, !tbaa !21
  %11 = getelementptr inbounds nuw %struct.internal_state, ptr %10, i32 0, i32 5
  %12 = load i64, ptr %11, align 8, !tbaa !78
  %13 = trunc i64 %12 to i32
  store i32 %13, ptr %3, align 4, !tbaa !9
  %14 = load i32, ptr %3, align 4, !tbaa !9
  %15 = load ptr, ptr %2, align 8, !tbaa !4
  %16 = getelementptr inbounds nuw %struct.z_stream_s, ptr %15, i32 0, i32 4
  %17 = load i32, ptr %16, align 8, !tbaa !98
  %18 = icmp ugt i32 %14, %17
  br i1 %18, label %19, label %23

19:                                               ; preds = %1
  %20 = load ptr, ptr %2, align 8, !tbaa !4
  %21 = getelementptr inbounds nuw %struct.z_stream_s, ptr %20, i32 0, i32 4
  %22 = load i32, ptr %21, align 8, !tbaa !98
  store i32 %22, ptr %3, align 4, !tbaa !9
  br label %23

23:                                               ; preds = %19, %1
  %24 = load i32, ptr %3, align 4, !tbaa !9
  %25 = icmp eq i32 %24, 0
  br i1 %25, label %26, label %27

26:                                               ; preds = %23
  store i32 1, ptr %5, align 4
  br label %76

27:                                               ; preds = %23
  %28 = load ptr, ptr %2, align 8, !tbaa !4
  %29 = getelementptr inbounds nuw %struct.z_stream_s, ptr %28, i32 0, i32 3
  %30 = load ptr, ptr %29, align 8, !tbaa !97
  %31 = load ptr, ptr %4, align 8, !tbaa !21
  %32 = getelementptr inbounds nuw %struct.internal_state, ptr %31, i32 0, i32 4
  %33 = load ptr, ptr %32, align 8, !tbaa !79
  %34 = load i32, ptr %3, align 4, !tbaa !9
  %35 = zext i32 %34 to i64
  call void @llvm.memcpy.p0.p0.i64(ptr align 1 %30, ptr align 1 %33, i64 %35, i1 false)
  %36 = load i32, ptr %3, align 4, !tbaa !9
  %37 = load ptr, ptr %2, align 8, !tbaa !4
  %38 = getelementptr inbounds nuw %struct.z_stream_s, ptr %37, i32 0, i32 3
  %39 = load ptr, ptr %38, align 8, !tbaa !97
  %40 = zext i32 %36 to i64
  %41 = getelementptr inbounds nuw i8, ptr %39, i64 %40
  store ptr %41, ptr %38, align 8, !tbaa !97
  %42 = load i32, ptr %3, align 4, !tbaa !9
  %43 = load ptr, ptr %4, align 8, !tbaa !21
  %44 = getelementptr inbounds nuw %struct.internal_state, ptr %43, i32 0, i32 4
  %45 = load ptr, ptr %44, align 8, !tbaa !79
  %46 = zext i32 %42 to i64
  %47 = getelementptr inbounds nuw i8, ptr %45, i64 %46
  store ptr %47, ptr %44, align 8, !tbaa !79
  %48 = load i32, ptr %3, align 4, !tbaa !9
  %49 = zext i32 %48 to i64
  %50 = load ptr, ptr %2, align 8, !tbaa !4
  %51 = getelementptr inbounds nuw %struct.z_stream_s, ptr %50, i32 0, i32 5
  %52 = load i64, ptr %51, align 8, !tbaa !75
  %53 = add i64 %52, %49
  store i64 %53, ptr %51, align 8, !tbaa !75
  %54 = load i32, ptr %3, align 4, !tbaa !9
  %55 = load ptr, ptr %2, align 8, !tbaa !4
  %56 = getelementptr inbounds nuw %struct.z_stream_s, ptr %55, i32 0, i32 4
  %57 = load i32, ptr %56, align 8, !tbaa !98
  %58 = sub i32 %57, %54
  store i32 %58, ptr %56, align 8, !tbaa !98
  %59 = load i32, ptr %3, align 4, !tbaa !9
  %60 = zext i32 %59 to i64
  %61 = load ptr, ptr %4, align 8, !tbaa !21
  %62 = getelementptr inbounds nuw %struct.internal_state, ptr %61, i32 0, i32 5
  %63 = load i64, ptr %62, align 8, !tbaa !78
  %64 = sub i64 %63, %60
  store i64 %64, ptr %62, align 8, !tbaa !78
  %65 = load ptr, ptr %4, align 8, !tbaa !21
  %66 = getelementptr inbounds nuw %struct.internal_state, ptr %65, i32 0, i32 5
  %67 = load i64, ptr %66, align 8, !tbaa !78
  %68 = icmp eq i64 %67, 0
  br i1 %68, label %69, label %75

69:                                               ; preds = %27
  %70 = load ptr, ptr %4, align 8, !tbaa !21
  %71 = getelementptr inbounds nuw %struct.internal_state, ptr %70, i32 0, i32 2
  %72 = load ptr, ptr %71, align 8, !tbaa !46
  %73 = load ptr, ptr %4, align 8, !tbaa !21
  %74 = getelementptr inbounds nuw %struct.internal_state, ptr %73, i32 0, i32 4
  store ptr %72, ptr %74, align 8, !tbaa !79
  br label %75

75:                                               ; preds = %69, %27
  store i32 0, ptr %5, align 4
  br label %76

76:                                               ; preds = %75, %26
  call void @llvm.lifetime.end.p0(i64 8, ptr %4) #5
  call void @llvm.lifetime.end.p0(i64 4, ptr %3) #5
  %77 = load i32, ptr %5, align 4
  switch i32 %77, label %79 [
    i32 0, label %78
    i32 1, label %78
  ]

78:                                               ; preds = %76, %76
  ret void

79:                                               ; preds = %76
  unreachable
}