; Function Attrs: nounwind uwtable
define internal fastcc void @flush_pending(ptr noundef captures(none) %0) unnamed_addr #0 {
  %2 = getelementptr inbounds nuw i8, ptr %0, i64 56
  %3 = load ptr, ptr %2, align 8, !tbaa !17
  tail call void @cm_zlib__tr_flush_bits(ptr noundef %3) #10
  %4 = getelementptr inbounds nuw i8, ptr %3, i64 40
  %5 = load i64, ptr %4, align 8, !tbaa !83
  %6 = trunc i64 %5 to i32
  %7 = getelementptr inbounds nuw i8, ptr %0, i64 32
  %8 = load i32, ptr %7, align 8, !tbaa !92
  %spec.select = tail call i32 @llvm.umin.i32(i32 %8, i32 %6)
  %9 = icmp eq i32 %spec.select, 0
  br i1 %9, label %31, label %10

10:                                               ; preds = %1
  %11 = getelementptr inbounds nuw i8, ptr %0, i64 24
  %12 = load ptr, ptr %11, align 8, !tbaa !91
  %13 = getelementptr inbounds nuw i8, ptr %3, i64 32
  %14 = load ptr, ptr %13, align 8, !tbaa !84
  %15 = zext i32 %spec.select to i64
  tail call void @llvm.memcpy.p0.p0.i64(ptr align 1 %12, ptr align 1 %14, i64 %15, i1 false)
  %16 = load ptr, ptr %11, align 8, !tbaa !91
  %17 = getelementptr inbounds nuw i8, ptr %16, i64 %15
  store ptr %17, ptr %11, align 8, !tbaa !91
  %18 = load ptr, ptr %13, align 8, !tbaa !84
  %19 = getelementptr inbounds nuw i8, ptr %18, i64 %15
  store ptr %19, ptr %13, align 8, !tbaa !84
  %20 = getelementptr inbounds nuw i8, ptr %0, i64 40
  %21 = load i64, ptr %20, align 8, !tbaa !93
  %22 = add i64 %21, %15
  store i64 %22, ptr %20, align 8, !tbaa !93
  %23 = load i32, ptr %7, align 8, !tbaa !92
  %24 = sub i32 %23, %spec.select
  store i32 %24, ptr %7, align 8, !tbaa !92
  %25 = load i64, ptr %4, align 8, !tbaa !83
  %26 = sub i64 %25, %15
  store i64 %26, ptr %4, align 8, !tbaa !83
  %27 = icmp eq i64 %25, %15
  br i1 %27, label %28, label %31

28:                                               ; preds = %10
  %29 = getelementptr inbounds nuw i8, ptr %3, i64 16
  %30 = load ptr, ptr %29, align 8, !tbaa !42
  store ptr %30, ptr %13, align 8, !tbaa !84
  br label %31

31:                                               ; preds = %10, %28, %1
  ret void
}